target datalayout = "e-m:e-p270:32:32-p271:32:32-p272:64:64-i64:64-i128:128-f80:128-n8:16:32:64-S128"
target triple = "x86_64-pc-linux-gnu"

%struct.obj_info = type { ptr, ptr, i64, ptr, i64, i64, %struct.dwarf_section, %struct.dwarf_section, %struct.dwarf_section, %struct.dwarf_section, %struct.dwarf_section, %struct.dwarf_section, %struct.dwarf_section, %struct.dwarf_section, %struct.dwarf_section, ptr }
%struct.dwarf_section = type { ptr, i64, i64 }
%struct.DebugInfoReader = type { ptr, ptr, i8, ptr, i64, i64, i64, i64, ptr, i8, i16, ptr, ptr, ptr, ptr, ptr, ptr, ptr, i32, i8, i32, [256 x ptr] }
%struct.DebugInfoValue = type { %union.anon, i64, i64, i64, i64, i32 }
%union.anon = type { ptr }

; Function Attrs: nounwind sspstrong uwtable
define internal void @debug_info_reader_init(ptr noundef %0, ptr noundef %1) #0 {
  %3 = alloca ptr, align 8
  %4 = alloca ptr, align 8
  store ptr %0, ptr %3, align 8, !tbaa !11
  store ptr %1, ptr %4, align 8, !tbaa !17
  %5 = load ptr, ptr %4, align 8, !tbaa !17
  %6 = getelementptr inbounds nuw %struct.obj_info, ptr %5, i32 0, i32 1
  %7 = load ptr, ptr %6, align 8, !tbaa !47
  %8 = load ptr, ptr %3, align 8, !tbaa !11
  %9 = getelementptr inbounds nuw %struct.DebugInfoReader, ptr %8, i32 0, i32 1
  store ptr %7, ptr %9, align 8, !tbaa !96
  %10 = load ptr, ptr %4, align 8, !tbaa !17
  %11 = load ptr, ptr %3, align 8, !tbaa !11
  %12 = getelementptr inbounds nuw %struct.DebugInfoReader, ptr %11, i32 0, i32 0
  store ptr %10, ptr %12, align 8, !tbaa !97
  %13 = load ptr, ptr %4, align 8, !tbaa !17
  %14 = getelementptr inbounds nuw %struct.obj_info, ptr %13, i32 0, i32 7
  %15 = getelementptr inbounds nuw %struct.dwarf_section, ptr %14, i32 0, i32 0
  %16 = load ptr, ptr %15, align 8, !tbaa !76
  %17 = load ptr, ptr %3, align 8, !tbaa !11
  %18 = getelementptr inbounds nuw %struct.DebugInfoReader, ptr %17, i32 0, i32 13
  store ptr %16, ptr %18, align 8, !tbaa !78
  %19 = load ptr, ptr %4, align 8, !tbaa !17
  %20 = getelementptr inbounds nuw %struct.obj_info, ptr %19, i32 0, i32 7
  %21 = getelementptr inbounds nuw %struct.dwarf_section, ptr %20, i32 0, i32 0
  %22 = load ptr, ptr %21, align 8, !tbaa !76
  %23 = load ptr, ptr %4, align 8, !tbaa !17
  %24 = getelementptr inbounds nuw %struct.obj_info, ptr %23, i32 0, i32 7
  %25 = getelementptr inbounds nuw %struct.dwarf_section, ptr %24, i32 0, i32 1
  %26 = load i64, ptr %25, align 8, !tbaa !98
  %27 = getelementptr i8, ptr %22, i64 %26
  %28 = load ptr, ptr %3, align 8, !tbaa !11
  %29 = getelementptr inbounds nuw %struct.DebugInfoReader, ptr %28, i32 0, i32 15
  store ptr %27, ptr %29, align 8, !tbaa !80
  %30 = load ptr, ptr %4, align 8, !tbaa !17
  %31 = getelementptr inbounds nuw %struct.obj_info, ptr %30, i32 0, i32 8
  %32 = getelementptr inbounds nuw %struct.dwarf_section, ptr %31, i32 0, i32 0
  %33 = load ptr, ptr %32, align 8, !tbaa !86
  %34 = load ptr, ptr %3, align 8, !tbaa !11
  %35 = getelementptr inbounds nuw %struct.DebugInfoReader, ptr %34, i32 0, i32 8
  store ptr %33, ptr %35, align 8, !tbaa !99
  %36 = load ptr, ptr %3, align 8, !tbaa !11
  %37 = getelementptr inbounds nuw %struct.DebugInfoReader, ptr %36, i32 0, i32 4
  store i64 0, ptr %37, align 8, !tbaa !100
  %38 = load ptr, ptr %3, align 8, !tbaa !11
  %39 = getelementptr inbounds nuw %struct.DebugInfoReader, ptr %38, i32 0, i32 5
  store i64 0, ptr %39, align 8, !tbaa !101
  %40 = load ptr, ptr %3, align 8, !tbaa !11
  %41 = getelementptr inbounds nuw %struct.DebugInfoReader, ptr %40, i32 0, i32 6
  store i64 0, ptr %41, align 8, !tbaa !102
  %42 = load ptr, ptr %3, align 8, !tbaa !11
  %43 = getelementptr inbounds nuw %struct.DebugInfoReader, ptr %42, i32 0, i32 7
  store i64 0, ptr %43, align 8, !tbaa !103
  ret void
}

; Function Attrs: nounwind sspstrong uwtable
define internal i64 @uleb128(ptr noundef %0) #0 {
  %2 = alloca ptr, align 8
  %3 = alloca i64, align 8
  %4 = alloca i32, align 4
  %5 = alloca i8, align 1
  %6 = alloca i32, align 4
  store ptr %0, ptr %2, align 8, !tbaa !91
  call void @llvm.lifetime.start.p0(i64 8, ptr %3) #12
  store i64 0, ptr %3, align 8, !tbaa !21
  call void @llvm.lifetime.start.p0(i64 4, ptr %4) #12
  store i32 0, ptr %4, align 4, !tbaa !7
  br label %7

7:                                                ; preds = %36, %1
  call void @llvm.lifetime.start.p0(i64 1, ptr %5) #12
  %8 = load ptr, ptr %2, align 8, !tbaa !91
  %9 = load ptr, ptr %8, align 8, !tbaa !19
  %10 = getelementptr i8, ptr %9, i32 1
  store ptr %10, ptr %8, align 8, !tbaa !19
  %11 = load i8, ptr %9, align 1, !tbaa !53
  store i8 %11, ptr %5, align 1, !tbaa !53
  %12 = load i8, ptr %5, align 1, !tbaa !53
  %13 = zext i8 %12 to i32
  %14 = icmp slt i32 %13, 128
  br i1 %14, label %15, label %23

15:                                               ; preds = %7
  %16 = load i8, ptr %5, align 1, !tbaa !53
  %17 = zext i8 %16 to i64
  %18 = load i32, ptr %4, align 4, !tbaa !7
  %19 = zext i32 %18 to i64
  %20 = shl i64 %17, %19
  %21 = load i64, ptr %3, align 8, !tbaa !21
  %22 = add i64 %21, %20
  store i64 %22, ptr %3, align 8, !tbaa !21
  store i32 2, ptr %6, align 4
  br label %34

23:                                               ; preds = %7
  %24 = load i8, ptr %5, align 1, !tbaa !53
  %25 = zext i8 %24 to i32
  %26 = and i32 %25, 127
  %27 = load i32, ptr %4, align 4, !tbaa !7
  %28 = shl i32 %26, %27
  %29 = sext i32 %28 to i64
  %30 = load i64, ptr %3, align 8, !tbaa !21
  %31 = add i64 %30, %29
  store i64 %31, ptr %3, align 8, !tbaa !21
  %32 = load i32, ptr %4, align 4, !tbaa !7
  %33 = add i32 %32, 7
  store i32 %33, ptr %4, align 4, !tbaa !7
  store i32 0, ptr %6, align 4
  br label %34

34:                                               ; preds = %23, %15
  call void @llvm.lifetime.end.p0(i64 1, ptr %5) #12
  %35 = load i32, ptr %6, align 4
  switch i32 %35, label %39 [
    i32 0, label %36
    i32 2, label %37
  ]

36:                                               ; preds = %34
  br label %7

37:                                               ; preds = %34
  %38 = load i64, ptr %3, align 8, !tbaa !21
  store i32 1, ptr %6, align 4
  call void @llvm.lifetime.end.p0(i64 4, ptr %4) #12
  call void @llvm.lifetime.end.p0(i64 8, ptr %3) #12
  ret i64 %38

39:                                               ; preds = %34
  unreachable
}

; Function Attrs: nounwind sspstrong uwtable
define internal ptr @parse_ver5_debug_line_header(ptr noundef %0, i32 noundef %1, i8 noundef zeroext %2, ptr noundef %3, ptr noundef %4, ptr noundef %5, ptr noundef %6) #0 {
  %8 = alloca ptr, align 8
  %9 = alloca ptr, align 8
  %10 = alloca i32, align 4
  %11 = alloca i8, align 1
  %12 = alloca ptr, align 8
  %13 = alloca ptr, align 8
  %14 = alloca ptr, align 8
  %15 = alloca ptr, align 8
  %16 = alloca i32, align 4
  %17 = alloca i32, align 4
  %18 = alloca i32, align 4
  %19 = alloca ptr, align 8
  %20 = alloca i32, align 4
  %21 = alloca %struct.DebugInfoReader, align 8
  %22 = alloca ptr, align 8
  %23 = alloca %struct.DebugInfoValue, align 8
  %24 = alloca i64, align 8
  %25 = alloca i64, align 8
  %26 = alloca i32, align 4
  store ptr %0, ptr %9, align 8, !tbaa !19
  store i32 %1, ptr %10, align 4, !tbaa !7
  store i8 %2, ptr %11, align 1, !tbaa !53
  store ptr %3, ptr %12, align 8, !tbaa !17
  store ptr %4, ptr %13, align 8, !tbaa !91
  store ptr %5, ptr %14, align 8, !tbaa !158
  store ptr %6, ptr %15, align 8, !tbaa !13
  call void @llvm.lifetime.start.p0(i64 4, ptr %16) #12
  call void @llvm.lifetime.start.p0(i64 4, ptr %17) #12
  call void @llvm.lifetime.start.p0(i64 4, ptr %18) #12
  %27 = load ptr, ptr %9, align 8, !tbaa !19
  %28 = getelementptr i8, ptr %27, i32 1
  store ptr %28, ptr %9, align 8, !tbaa !19
  %29 = load i8, ptr %27, align 1, !tbaa !53
  %30 = zext i8 %29 to i32
  store i32 %30, ptr %18, align 4, !tbaa !7
  call void @llvm.lifetime.start.p0(i64 8, ptr %19) #12
  %31 = load ptr, ptr %9, align 8, !tbaa !19
  store ptr %31, ptr %19, align 8, !tbaa !19
  store i32 0, ptr %16, align 4, !tbaa !7
  br label %32

32:                                               ; preds = %39, %7
  %33 = load i32, ptr %16, align 4, !tbaa !7
  %34 = load i32, ptr %18, align 4, !tbaa !7
  %35 = mul i32 %34, 2
  %36 = icmp slt i32 %33, %35
  br i1 %36, label %37, label %42

37:                                               ; preds = %32
  %38 = call i64 @uleb128(ptr noundef %9)
  br label %39

39:                                               ; preds = %37
  %40 = load i32, ptr %16, align 4, !tbaa !7
  %41 = add i32 %40, 1
  store i32 %41, ptr %16, align 4, !tbaa !7
  br label %32, !llvm.loop !160

42:                                               ; preds = %32
  call void @llvm.lifetime.start.p0(i64 4, ptr %20) #12
  %43 = call i64 @uleb128(ptr noundef %9)
  %44 = trunc i64 %43 to i32
  store i32 %44, ptr %20, align 4, !tbaa !7
  call void @llvm.lifetime.start.p0(i64 2200, ptr %21) #12
  call void @llvm.memset.p0.i64(ptr align 8 %21, i8 0, i64 2200, i1 false)
  %45 = load ptr, ptr %12, align 8, !tbaa !17
  call void @debug_info_reader_init(ptr noundef %21, ptr noundef %45)
  %46 = load i8, ptr %11, align 1, !tbaa !53
  %47 = zext i8 %46 to i32
  %48 = getelementptr inbounds nuw %struct.DebugInfoReader, ptr %21, i32 0, i32 18
  store i32 %47, ptr %48, align 8, !tbaa !104
  %49 = load ptr, ptr %9, align 8, !tbaa !19
  %50 = getelementptr inbounds nuw %struct.DebugInfoReader, ptr %21, i32 0, i32 13
  store ptr %49, ptr %50, align 8, !tbaa !78
  store i32 0, ptr %17, align 4, !tbaa !7
  br label %51

51:                                               ; preds = %115, %42
  %52 = load i32, ptr %17, align 4, !tbaa !7
  %53 = load i32, ptr %20, align 4, !tbaa !7
  %54 = icmp slt i32 %52, %53
  br i1 %54, label %55, label %118

55:                                               ; preds = %51
  call void @llvm.lifetime.start.p0(i64 8, ptr %22) #12
  %56 = load ptr, ptr %19, align 8, !tbaa !19
  store ptr %56, ptr %22, align 8, !tbaa !19
  store i32 0, ptr %16, align 4, !tbaa !7
  br label %57

57:                                               ; preds = %103, %55
  %58 = load i32, ptr %16, align 4, !tbaa !7
  %59 = load i32, ptr %18, align 4, !tbaa !7
  %60 = icmp slt i32 %58, %59
  br i1 %60, label %61, label %106

61:                                               ; preds = %57
  call void @llvm.lifetime.start.p0(i64 48, ptr %23) #12
  call void @llvm.memset.p0.i64(ptr align 8 %23, i8 0, i64 48, i1 false)
  call void @llvm.lifetime.start.p0(i64 8, ptr %24) #12
  %62 = call i64 @uleb128(ptr noundef %22)
  store i64 %62, ptr %24, align 8, !tbaa !21
  call void @llvm.lifetime.start.p0(i64 8, ptr %25) #12
  %63 = call i64 @uleb128(ptr noundef %22)
  store i64 %63, ptr %25, align 8, !tbaa !21
  %64 = load i64, ptr %25, align 8, !tbaa !21
  %65 = load ptr, ptr %15, align 8, !tbaa !13
  %66 = call zeroext i1 @debug_info_reader_read_value(ptr noundef %21, i64 noundef %64, ptr noundef %23, ptr noundef %65)
  br i1 %66, label %68, label %67

67:                                               ; preds = %61
  store ptr null, ptr %8, align 8
  store i32 1, ptr %26, align 4
  br label %100

68:                                               ; preds = %61
  %69 = load i64, ptr %24, align 8, !tbaa !21
  %70 = icmp eq i64 %69, 1
  br i1 %70, label %71, label %85

71:                                               ; preds = %68
  %72 = getelementptr inbounds nuw %struct.DebugInfoValue, ptr %23, i32 0, i32 5
  %73 = load i32, ptr %72, align 8, !tbaa !117
  %74 = icmp eq i32 %73, 1
  br i1 %74, label %75, label %85

75:                                               ; preds = %71
  %76 = load ptr, ptr %13, align 8, !tbaa !91
  %77 = icmp ne ptr %76, null
  br i1 %77, label %78, label %85

78:                                               ; preds = %75
  %79 = getelementptr inbounds nuw %struct.DebugInfoValue, ptr %23, i32 0, i32 0
  %80 = load ptr, ptr %79, align 8, !tbaa !53
  %81 = getelementptr inbounds nuw %struct.DebugInfoValue, ptr %23, i32 0, i32 1
  %82 = load i64, ptr %81, align 8, !tbaa !161
  %83 = getelementptr i8, ptr %80, i64 %82
  %84 = load ptr, ptr %13, align 8, !tbaa !91
  store ptr %83, ptr %84, align 8, !tbaa !19
  br label %85

85:                                               ; preds = %78, %75, %71, %68
  %86 = load i64, ptr %24, align 8, !tbaa !21
  %87 = icmp eq i64 %86, 2
  br i1 %87, label %88, label %99

88:                                               ; preds = %85
  %89 = getelementptr inbounds nuw %struct.DebugInfoValue, ptr %23, i32 0, i32 5
  %90 = load i32, ptr %89, align 8, !tbaa !117
  %91 = icmp eq i32 %90, 3
  br i1 %91, label %92, label %99

92:                                               ; preds = %88
  %93 = load ptr, ptr %14, align 8, !tbaa !158
  %94 = icmp ne ptr %93, null
  br i1 %94, label %95, label %99

95:                                               ; preds = %92
  %96 = getelementptr inbounds nuw %struct.DebugInfoValue, ptr %23, i32 0, i32 0
  %97 = load i64, ptr %96, align 8, !tbaa !53
  %98 = load ptr, ptr %14, align 8, !tbaa !158
  store i64 %97, ptr %98, align 8, !tbaa !21
  br label %99

99:                                               ; preds = %95, %92, %88, %85
  store i32 0, ptr %26, align 4
  br label %100

100:                                              ; preds = %99, %67
  call void @llvm.lifetime.end.p0(i64 8, ptr %25) #12
  call void @llvm.lifetime.end.p0(i64 8, ptr %24) #12
  call void @llvm.lifetime.end.p0(i64 48, ptr %23) #12
  %101 = load i32, ptr %26, align 4
  switch i32 %101, label %112 [
    i32 0, label %102
  ]

102:                                              ; preds = %100
  br label %103

103:                                              ; preds = %102
  %104 = load i32, ptr %16, align 4, !tbaa !7
  %105 = add i32 %104, 1
  store i32 %105, ptr %16, align 4, !tbaa !7
  br label %57, !llvm.loop !162

106:                                              ; preds = %57
  %107 = load i32, ptr %17, align 4, !tbaa !7
  %108 = load i32, ptr %10, align 4, !tbaa !7
  %109 = icmp eq i32 %107, %108
  br i1 %109, label %110, label %111

110:                                              ; preds = %106
  store ptr null, ptr %8, align 8
  store i32 1, ptr %26, align 4
  br label %112

111:                                              ; preds = %106
  store i32 0, ptr %26, align 4
  br label %112

112:                                              ; preds = %111, %110, %100
  call void @llvm.lifetime.end.p0(i64 8, ptr %22) #12
  %113 = load i32, ptr %26, align 4
  switch i32 %113, label %121 [
    i32 0, label %114
  ]

114:                                              ; preds = %112
  br label %115

115:                                              ; preds = %114
  %116 = load i32, ptr %17, align 4, !tbaa !7
  %117 = add i32 %116, 1
  store i32 %117, ptr %17, align 4, !tbaa !7
  br label %51, !llvm.loop !163

118:                                              ; preds = %51
  %119 = getelementptr inbounds nuw %struct.DebugInfoReader, ptr %21, i32 0, i32 13
  %120 = load ptr, ptr %119, align 8, !tbaa !78
  store ptr %120, ptr %8, align 8
  store i32 1, ptr %26, align 4
  br label %121

121:                                              ; preds = %118, %112
  call void @llvm.lifetime.end.p0(i64 2200, ptr %21) #12
  call void @llvm.lifetime.end.p0(i64 4, ptr %20) #12
  call void @llvm.lifetime.end.p0(i64 8, ptr %19) #12
  call void @llvm.lifetime.end.p0(i64 4, ptr %18) #12
  call void @llvm.lifetime.end.p0(i64 4, ptr %17) #12
  call void @llvm.lifetime.end.p0(i64 4, ptr %16) #12
  %122 = load ptr, ptr %8, align 8
  ret ptr %122
}