; Function Attrs: nounwind sspstrong uwtable
define internal fastcc ptr @parse_ver5_debug_line_header(ptr noundef %0, i32 noundef %1, i8 noundef zeroext %2, ptr noundef %3, ptr noundef writeonly captures(address_is_null) %4, ptr noundef writeonly captures(address_is_null) %5, ptr noundef %6) unnamed_addr #0 {
  %8 = alloca %struct.DebugInfoReader, align 8
  %9 = alloca %struct.DebugInfoValue, align 8
  %10 = getelementptr i8, ptr %0, i64 1
  %11 = load i8, ptr %0, align 1, !tbaa !12
  %12 = zext i8 %11 to i32
  %13 = shl nuw nsw i32 %12, 1
  %.not98 = icmp eq i8 %11, 0
  br i1 %.not98, label %._crit_edge, label %.lr.ph

.lr.ph:                                           ; preds = %7, %uleb128.exit
  %.03691 = phi i32 [ %21, %uleb128.exit ], [ 0, %7 ]
  %.07690 = phi ptr [ %.177, %uleb128.exit ], [ %10, %7 ]
  %14 = getelementptr i8, ptr %.07690, i64 1
  %15 = load i8, ptr %.07690, align 1, !tbaa !12
  %16 = icmp sgt i8 %15, -1
  br i1 %16, label %uleb128.exit, label %.lr.ph.i

.lr.ph.i:                                         ; preds = %.lr.ph, %.lr.ph.i
  %17 = phi ptr [ %18, %.lr.ph.i ], [ %14, %.lr.ph ]
  %18 = getelementptr i8, ptr %17, i64 1
  %19 = load i8, ptr %17, align 1, !tbaa !12
  %20 = icmp sgt i8 %19, -1
  br i1 %20, label %uleb128.exit, label %.lr.ph.i

uleb128.exit:                                     ; preds = %.lr.ph.i, %.lr.ph
  %.177 = phi ptr [ %14, %.lr.ph ], [ %18, %.lr.ph.i ]
  %21 = add nuw nsw i32 %.03691, 1
  %exitcond.not = icmp eq i32 %21, %13
  br i1 %exitcond.not, label %._crit_edge, label %.lr.ph, !llvm.loop !151

._crit_edge:                                      ; preds = %uleb128.exit, %7
  %.076.lcssa = phi ptr [ %10, %7 ], [ %.177, %uleb128.exit ]
  %22 = getelementptr i8, ptr %.076.lcssa, i64 1
  %23 = load i8, ptr %.076.lcssa, align 1, !tbaa !12
  %24 = icmp sgt i8 %23, -1
  br i1 %24, label %uleb128.exit53, label %.lr.ph.i44

.lr.ph.i44:                                       ; preds = %._crit_edge, %.lr.ph.i44
  %25 = phi i8 [ %33, %.lr.ph.i44 ], [ %23, %._crit_edge ]
  %26 = phi ptr [ %32, %.lr.ph.i44 ], [ %22, %._crit_edge ]
  %.01021.i45 = phi i64 [ %.1.i47, %.lr.ph.i44 ], [ 0, %._crit_edge ]
  %.01120.i46 = phi i32 [ %31, %.lr.ph.i44 ], [ 0, %._crit_edge ]
  %27 = and i8 %25, 127
  %28 = zext nneg i8 %27 to i32
  %29 = shl i32 %28, %.01120.i46
  %30 = zext i32 %29 to i64
  %31 = add i32 %.01120.i46, 7
  %.1.i47 = add i64 %.01021.i45, %30
  %32 = getelementptr i8, ptr %26, i64 1
  %33 = load i8, ptr %26, align 1, !tbaa !12
  %34 = icmp sgt i8 %33, -1
  br i1 %34, label %._crit_edge.loopexit.i48, label %.lr.ph.i44

._crit_edge.loopexit.i48:                         ; preds = %.lr.ph.i44
  %35 = zext nneg i32 %31 to i64
  br label %uleb128.exit53

uleb128.exit53:                                   ; preds = %._crit_edge, %._crit_edge.loopexit.i48
  %.278 = phi ptr [ %22, %._crit_edge ], [ %32, %._crit_edge.loopexit.i48 ]
  %.011.lcssa.i49 = phi i64 [ 0, %._crit_edge ], [ %35, %._crit_edge.loopexit.i48 ]
  %.010.lcssa.i50 = phi i64 [ 0, %._crit_edge ], [ %.1.i47, %._crit_edge.loopexit.i48 ]
  %.lcssa.i51 = phi i8 [ %23, %._crit_edge ], [ %33, %._crit_edge.loopexit.i48 ]
  %36 = zext nneg i8 %.lcssa.i51 to i64
  %37 = shl i64 %36, %.011.lcssa.i49
  %.117.i52 = add i64 %37, %.010.lcssa.i50
  %.117.i52.fr = freeze i64 %.117.i52
  %38 = trunc i64 %.117.i52.fr to i32
  call void @llvm.lifetime.start.p0(i64 2200, ptr nonnull %8) #16
  %39 = getelementptr inbounds nuw i8, ptr %8, i64 16
  call void @llvm.memset.p0.i64(ptr noundef nonnull align 8 dereferenceable(2200) %39, i8 0, i64 2184, i1 false)
  %40 = getelementptr inbounds nuw i8, ptr %3, i64 8
  %41 = load ptr, ptr %40, align 8, !tbaa !47
  %42 = getelementptr inbounds nuw i8, ptr %8, i64 8
  store ptr %41, ptr %42, align 8, !tbaa !79
  store ptr %3, ptr %8, align 8, !tbaa !81
  %43 = getelementptr inbounds nuw i8, ptr %3, i64 72
  %44 = load ptr, ptr %43, align 8, !tbaa !77
  %45 = getelementptr inbounds nuw i8, ptr %8, i64 96
  %46 = getelementptr inbounds nuw i8, ptr %3, i64 80
  %47 = load i64, ptr %46, align 8, !tbaa !83
  %48 = getelementptr i8, ptr %44, i64 %47
  %49 = getelementptr inbounds nuw i8, ptr %8, i64 112
  store ptr %48, ptr %49, align 8, !tbaa !84
  %50 = getelementptr inbounds nuw i8, ptr %3, i64 96
  %51 = load ptr, ptr %50, align 8, !tbaa !85
  %52 = getelementptr inbounds nuw i8, ptr %8, i64 64
  store ptr %51, ptr %52, align 8, !tbaa !86
  %53 = getelementptr inbounds nuw i8, ptr %8, i64 32
  call void @llvm.memset.p0.i64(ptr noundef nonnull align 8 dereferenceable(32) %53, i8 0, i64 32, i1 false)
  %54 = zext i8 %2 to i32
  %55 = getelementptr inbounds nuw i8, ptr %8, i64 136
  store i32 %54, ptr %55, align 8, !tbaa !87
  store ptr %.278, ptr %45, align 8, !tbaa !82
  %56 = icmp sgt i32 %38, 0
  br i1 %56, label %.preheader.lr.ph, label %.loopexit

.preheader.lr.ph:                                 ; preds = %uleb128.exit53
  %57 = getelementptr inbounds nuw i8, ptr %9, i64 40
  %58 = icmp ne ptr %4, null
  %59 = icmp ne ptr %5, null
  %60 = getelementptr inbounds nuw i8, ptr %9, i64 8
  br i1 %.not98, label %.preheader.preheader, label %.preheader.us

.preheader.preheader:                             ; preds = %.preheader.lr.ph
  %61 = add nsw i32 %38, -1
  %.not = icmp ugt i32 %1, %61
  %spec.select = select i1 %.not, ptr %.278, ptr null
  br label %.loopexit

.preheader.us:                                    ; preds = %.preheader.lr.ph, %110
  %.03896.us = phi i32 [ %111, %110 ], [ 0, %.preheader.lr.ph ]
  br label %62

62:                                               ; preds = %.preheader.us, %108
  %.13793.us = phi i32 [ 0, %.preheader.us ], [ %109, %108 ]
  %.092.us = phi ptr [ %10, %.preheader.us ], [ %.2.us, %108 ]
  call void @llvm.lifetime.start.p0(i64 48, ptr nonnull %9) #16
  call void @llvm.memset.p0.i64(ptr noundef nonnull align 8 dereferenceable(48) %9, i8 0, i64 48, i1 false)
  %63 = getelementptr i8, ptr %.092.us, i64 1
  %64 = load i8, ptr %.092.us, align 1, !tbaa !12
  %65 = icmp sgt i8 %64, -1
  br i1 %65, label %uleb128.exit64.us, label %.lr.ph.i55.us

.lr.ph.i55.us:                                    ; preds = %62, %.lr.ph.i55.us
  %66 = phi i8 [ %74, %.lr.ph.i55.us ], [ %64, %62 ]
  %67 = phi ptr [ %73, %.lr.ph.i55.us ], [ %63, %62 ]
  %.01021.i56.us = phi i64 [ %.1.i58.us, %.lr.ph.i55.us ], [ 0, %62 ]
  %.01120.i57.us = phi i32 [ %72, %.lr.ph.i55.us ], [ 0, %62 ]
  %68 = and i8 %66, 127
  %69 = zext nneg i8 %68 to i32
  %70 = shl i32 %69, %.01120.i57.us
  %71 = sext i32 %70 to i64
  %72 = add i32 %.01120.i57.us, 7
  %.1.i58.us = add i64 %.01021.i56.us, %71
  %73 = getelementptr i8, ptr %67, i64 1
  %74 = load i8, ptr %67, align 1, !tbaa !12
  %75 = icmp sgt i8 %74, -1
  br i1 %75, label %._crit_edge.loopexit.i59.us, label %.lr.ph.i55.us

._crit_edge.loopexit.i59.us:                      ; preds = %.lr.ph.i55.us
  %76 = zext nneg i32 %72 to i64
  br label %uleb128.exit64.us

uleb128.exit64.us:                                ; preds = %._crit_edge.loopexit.i59.us, %62
  %.1.us = phi ptr [ %63, %62 ], [ %73, %._crit_edge.loopexit.i59.us ]
  %.011.lcssa.i60.us = phi i64 [ 0, %62 ], [ %76, %._crit_edge.loopexit.i59.us ]
  %.010.lcssa.i61.us = phi i64 [ 0, %62 ], [ %.1.i58.us, %._crit_edge.loopexit.i59.us ]
  %.lcssa.i62.us = phi i8 [ %64, %62 ], [ %74, %._crit_edge.loopexit.i59.us ]
  %77 = zext nneg i8 %.lcssa.i62.us to i64
  %78 = shl i64 %77, %.011.lcssa.i60.us
  %.117.i63.us = add i64 %78, %.010.lcssa.i61.us
  %79 = getelementptr i8, ptr %.1.us, i64 1
  %80 = load i8, ptr %.1.us, align 1, !tbaa !12
  %81 = icmp sgt i8 %80, -1
  br i1 %81, label %uleb128.exit75.us, label %.lr.ph.i66.us

.lr.ph.i66.us:                                    ; preds = %uleb128.exit64.us, %.lr.ph.i66.us
  %82 = phi i8 [ %90, %.lr.ph.i66.us ], [ %80, %uleb128.exit64.us ]
  %83 = phi ptr [ %89, %.lr.ph.i66.us ], [ %79, %uleb128.exit64.us ]
  %.01021.i67.us = phi i64 [ %.1.i69.us, %.lr.ph.i66.us ], [ 0, %uleb128.exit64.us ]
  %.01120.i68.us = phi i32 [ %88, %.lr.ph.i66.us ], [ 0, %uleb128.exit64.us ]
  %84 = and i8 %82, 127
  %85 = zext nneg i8 %84 to i32
  %86 = shl i32 %85, %.01120.i68.us
  %87 = sext i32 %86 to i64
  %88 = add i32 %.01120.i68.us, 7
  %.1.i69.us = add i64 %.01021.i67.us, %87
  %89 = getelementptr i8, ptr %83, i64 1
  %90 = load i8, ptr %83, align 1, !tbaa !12
  %91 = icmp sgt i8 %90, -1
  br i1 %91, label %._crit_edge.loopexit.i70.us, label %.lr.ph.i66.us

._crit_edge.loopexit.i70.us:                      ; preds = %.lr.ph.i66.us
  %92 = zext nneg i32 %88 to i64
  br label %uleb128.exit75.us

uleb128.exit75.us:                                ; preds = %._crit_edge.loopexit.i70.us, %uleb128.exit64.us
  %.2.us = phi ptr [ %79, %uleb128.exit64.us ], [ %89, %._crit_edge.loopexit.i70.us ]
  %.011.lcssa.i71.us = phi i64 [ 0, %uleb128.exit64.us ], [ %92, %._crit_edge.loopexit.i70.us ]
  %.010.lcssa.i72.us = phi i64 [ 0, %uleb128.exit64.us ], [ %.1.i69.us, %._crit_edge.loopexit.i70.us ]
  %.lcssa.i73.us = phi i8 [ %80, %uleb128.exit64.us ], [ %90, %._crit_edge.loopexit.i70.us ]
  %93 = zext nneg i8 %.lcssa.i73.us to i64
  %94 = shl i64 %93, %.011.lcssa.i71.us
  %.117.i74.us = add i64 %94, %.010.lcssa.i72.us
  %95 = call fastcc zeroext i1 @debug_info_reader_read_value(ptr noundef %8, i64 noundef %.117.i74.us, ptr noundef %9, ptr noundef %6)
  br i1 %95, label %96, label %.critedge42

96:                                               ; preds = %uleb128.exit75.us
  %97 = icmp eq i64 %.117.i63.us, 1
  %98 = load i32, ptr %57, align 8
  %99 = icmp eq i32 %98, 1
  %or.cond.us = select i1 %97, i1 %99, i1 false
  %or.cond5.us = and i1 %58, %or.cond.us
  br i1 %or.cond5.us, label %.thread.us, label %100

100:                                              ; preds = %96
  %101 = icmp eq i64 %.117.i63.us, 2
  %102 = icmp eq i32 %98, 3
  %or.cond8.us = select i1 %101, i1 %102, i1 false
  %or.cond10.us = and i1 %59, %or.cond8.us
  br i1 %or.cond10.us, label %103, label %108

103:                                              ; preds = %100
  %104 = load i64, ptr %9, align 8, !tbaa !12
  store i64 %104, ptr %5, align 8, !tbaa !68
  br label %108

.thread.us:                                       ; preds = %96
  %105 = load ptr, ptr %9, align 8, !tbaa !12
  %106 = load i64, ptr %60, align 8, !tbaa !152
  %107 = getelementptr i8, ptr %105, i64 %106
  store ptr %107, ptr %4, align 8, !tbaa !62
  br label %108

108:                                              ; preds = %.thread.us, %103, %100
  call void @llvm.lifetime.end.p0(i64 48, ptr nonnull %9) #16
  %109 = add nuw nsw i32 %.13793.us, 1
  %exitcond111.not = icmp eq i32 %109, %12
  br i1 %exitcond111.not, label %._crit_edge95.us, label %62, !llvm.loop !153

110:                                              ; preds = %._crit_edge95.us
  %111 = add nuw nsw i32 %.03896.us, 1
  %exitcond112.not = icmp eq i32 %111, %38
  br i1 %exitcond112.not, label %._crit_edge97.loopexit101, label %.preheader.us, !llvm.loop !154

._crit_edge95.us:                                 ; preds = %108
  %.not.us = icmp eq i32 %.03896.us, %1
  br i1 %.not.us, label %.loopexit, label %110

._crit_edge97.loopexit101:                        ; preds = %110
  %.pre = load ptr, ptr %45, align 8, !tbaa !82
  br label %.loopexit

.critedge42:                                      ; preds = %uleb128.exit75.us
  call void @llvm.lifetime.end.p0(i64 48, ptr nonnull %9) #16
  br label %.loopexit

.loopexit:                                        ; preds = %._crit_edge95.us, %.preheader.preheader, %uleb128.exit53, %._crit_edge97.loopexit101, %.critedge42
  %.4 = phi ptr [ null, %.critedge42 ], [ %.pre, %._crit_edge97.loopexit101 ], [ %.278, %uleb128.exit53 ], [ %spec.select, %.preheader.preheader ], [ null, %._crit_edge95.us ]
  call void @llvm.lifetime.end.p0(i64 2200, ptr nonnull %8) #16
  ret ptr %.4
}